target datalayout = "e-m:e-p270:32:32-p271:32:32-p272:64:64-i64:64-i128:128-f80:128-n8:16:32:64-S128"
target triple = "x86_64-pc-linux-gnu"

%struct.tm = type { i32, i32, i32, i32, i32, i32, i32, i32, i32, i64, ptr }

; Function Attrs: nounwind uwtable
define hidden i32 @ASN1_UTCTIME_cmp_time_t(ptr noundef %0, i64 noundef %1) #0 {
  %3 = alloca i32, align 4
  %4 = alloca ptr, align 8
  %5 = alloca i64, align 8
  %6 = alloca %struct.tm, align 8
  %7 = alloca %struct.tm, align 8
  %8 = alloca i32, align 4
  %9 = alloca i32, align 4
  %10 = alloca i32, align 4
  store ptr %0, ptr %4, align 8, !tbaa !11
  store i64 %1, ptr %5, align 8, !tbaa !33
  call void @llvm.lifetime.start.p0(i64 56, ptr %6) #6
  call void @llvm.lifetime.start.p0(i64 56, ptr %7) #6
  call void @llvm.lifetime.start.p0(i64 4, ptr %8) #6
  call void @llvm.lifetime.start.p0(i64 4, ptr %9) #6
  %11 = load ptr, ptr %4, align 8, !tbaa !11
  %12 = call i32 @asn1_utctime_to_tm(ptr noundef %6, ptr noundef %11)
  %13 = icmp ne i32 %12, 0
  br i1 %13, label %15, label %14

14:                                               ; preds = %2
  store i32 -2, ptr %3, align 4
  store i32 1, ptr %10, align 4
  br label %40

15:                                               ; preds = %2
  %16 = call ptr @OPENSSL_gmtime(ptr noundef %5, ptr noundef %7)
  %17 = icmp ne ptr %16, null
  br i1 %17, label %19, label %18

18:                                               ; preds = %15
  store i32 -2, ptr %3, align 4
  store i32 1, ptr %10, align 4
  br label %40

19:                                               ; preds = %15
  %20 = call i32 @OPENSSL_gmtime_diff(ptr noundef %8, ptr noundef %9, ptr noundef %7, ptr noundef %6)
  %21 = icmp ne i32 %20, 0
  br i1 %21, label %23, label %22

22:                                               ; preds = %19
  store i32 -2, ptr %3, align 4
  store i32 1, ptr %10, align 4
  br label %40

23:                                               ; preds = %19
  %24 = load i32, ptr %8, align 4, !tbaa !19
  %25 = icmp sgt i32 %24, 0
  br i1 %25, label %26, label %27

26:                                               ; preds = %23
  store i32 1, ptr %3, align 4
  store i32 1, ptr %10, align 4
  br label %40

27:                                               ; preds = %23
  %28 = load i32, ptr %8, align 4, !tbaa !19
  %29 = icmp slt i32 %28, 0
  br i1 %29, label %30, label %31

30:                                               ; preds = %27
  store i32 -1, ptr %3, align 4
  store i32 1, ptr %10, align 4
  br label %40

31:                                               ; preds = %27
  %32 = load i32, ptr %9, align 4, !tbaa !19
  %33 = icmp sgt i32 %32, 0
  br i1 %33, label %34, label %35

34:                                               ; preds = %31
  store i32 1, ptr %3, align 4
  store i32 1, ptr %10, align 4
  br label %40

35:                                               ; preds = %31
  %36 = load i32, ptr %9, align 4, !tbaa !19
  %37 = icmp slt i32 %36, 0
  br i1 %37, label %38, label %39

38:                                               ; preds = %35
  store i32 -1, ptr %3, align 4
  store i32 1, ptr %10, align 4
  br label %40

39:                                               ; preds = %35
  store i32 0, ptr %3, align 4
  store i32 1, ptr %10, align 4
  br label %40

40:                                               ; preds = %39, %38, %34, %30, %26, %22, %18, %14
  call void @llvm.lifetime.end.p0(i64 4, ptr %9) #6
  call void @llvm.lifetime.end.p0(i64 4, ptr %8) #6
  call void @llvm.lifetime.end.p0(i64 56, ptr %7) #6
  call void @llvm.lifetime.end.p0(i64 56, ptr %6) #6
  %41 = load i32, ptr %3, align 4
  ret i32 %41
}