; Function Attrs: nounwind uwtable
define hidden range(i32 -2, 2) i32 @ASN1_UTCTIME_cmp_time_t(ptr noundef readonly captures(none) %0, i64 noundef %1) local_unnamed_addr #0 {
  %3 = alloca i64, align 8
  %4 = alloca %struct.tm, align 8
  %5 = alloca %struct.tm, align 8
  %6 = alloca i32, align 4
  %7 = alloca i32, align 4
  store i64 %1, ptr %3, align 8, !tbaa !28
  call void @llvm.lifetime.start.p0(i64 56, ptr nonnull %4) #6
  call void @llvm.lifetime.start.p0(i64 56, ptr nonnull %5) #6
  call void @llvm.lifetime.start.p0(i64 4, ptr nonnull %6) #6
  call void @llvm.lifetime.start.p0(i64 4, ptr nonnull %7) #6
  %8 = call i32 @asn1_utctime_to_tm(ptr noundef nonnull %4, ptr noundef %0)
  %.not = icmp eq i32 %8, 0
  br i1 %.not, label %22, label %9

9:                                                ; preds = %2
  %10 = call ptr @OPENSSL_gmtime(ptr noundef nonnull %3, ptr noundef nonnull %5) #6
  %.not3 = icmp eq ptr %10, null
  br i1 %.not3, label %22, label %11

11:                                               ; preds = %9
  %12 = call i32 @OPENSSL_gmtime_diff(ptr noundef nonnull %6, ptr noundef nonnull %7, ptr noundef nonnull %5, ptr noundef nonnull %4) #6
  %.not4 = icmp eq i32 %12, 0
  br i1 %.not4, label %22, label %13

13:                                               ; preds = %11
  %14 = load i32, ptr %6, align 4, !tbaa !17
  %15 = icmp sgt i32 %14, 0
  br i1 %15, label %22, label %16

16:                                               ; preds = %13
  %17 = icmp slt i32 %14, 0
  br i1 %17, label %22, label %18

18:                                               ; preds = %16
  %19 = load i32, ptr %7, align 4, !tbaa !17
  %20 = icmp sgt i32 %19, 0
  br i1 %20, label %22, label %21

21:                                               ; preds = %18
  %.not5 = icmp ne i32 %19, 0
  %. = sext i1 %.not5 to i32
  br label %22

22:                                               ; preds = %21, %18, %16, %13, %11, %9, %2
  %.0 = phi i32 [ -2, %2 ], [ -2, %9 ], [ -2, %11 ], [ 1, %13 ], [ -1, %16 ], [ 1, %18 ], [ %., %21 ]
  call void @llvm.lifetime.end.p0(i64 4, ptr nonnull %7) #6
  call void @llvm.lifetime.end.p0(i64 4, ptr nonnull %6) #6
  call void @llvm.lifetime.end.p0(i64 56, ptr nonnull %5) #6
  call void @llvm.lifetime.end.p0(i64 56, ptr nonnull %4) #6
  ret i32 %.0
}